target datalayout = "e-m:e-p270:32:32-p271:32:32-p272:64:64-i64:64-i128:128-f80:128-n8:16:32:64-S128"
target triple = "x86_64-pc-linux-gnu"

@hf_afp_pad = internal global i32 0, align 4
@hf_afp_file_bitmap = internal global i32 0, align 4
@hf_afp_dir_bitmap = internal global i32 0, align 4
@hf_afp_file_flag = internal global i32 0, align 4
@ett_afp_dir_bitmap = internal global i32 0, align 4
@ett_afp_file_bitmap = internal global i32 0, align 4

; Function Attrs: null_pointer_is_valid sspstrong uwtable
define internal zeroext i16 @decode_dir_bitmap(ptr noundef %0, ptr noundef %1, i32 noundef %2) #1 {
  %4 = alloca ptr, align 8
  %5 = alloca ptr, align 8
  %6 = alloca i32, align 4
  %7 = alloca i16, align 2
  store ptr %0, ptr %4, align 8
  store ptr %1, ptr %5, align 8
  store i32 %2, ptr %6, align 4
  call void @llvm.lifetime.start.p0(i64 2, ptr %7) #8
  %8 = load ptr, ptr %4, align 8
  %9 = load ptr, ptr %5, align 8
  %10 = load i32, ptr %6, align 4
  %11 = load i32, ptr @hf_afp_dir_bitmap, align 4
  %12 = load i32, ptr @ett_afp_dir_bitmap, align 4
  %13 = call ptr @proto_tree_add_bitmask(ptr noundef %8, ptr noundef %9, i32 noundef %10, i32 noundef %11, i32 noundef %12, ptr noundef @decode_dir_bitmap.bitmaps, i32 noundef 0)
  %14 = load ptr, ptr %5, align 8
  %15 = load i32, ptr %6, align 4
  %16 = call zeroext i16 @tvb_get_ntohs(ptr noundef %14, i32 noundef %15)
  store i16 %16, ptr %7, align 2
  %17 = load i16, ptr %7, align 2
  call void @llvm.lifetime.end.p0(i64 2, ptr %7) #8
  ret i16 %17
}

; Function Attrs: null_pointer_is_valid sspstrong uwtable
define internal zeroext i16 @decode_file_bitmap(ptr noundef %0, ptr noundef %1, i32 noundef %2) #1 {
  %4 = alloca ptr, align 8
  %5 = alloca ptr, align 8
  %6 = alloca i32, align 4
  %7 = alloca i16, align 2
  store ptr %0, ptr %4, align 8
  store ptr %1, ptr %5, align 8
  store i32 %2, ptr %6, align 4
  call void @llvm.lifetime.start.p0(i64 2, ptr %7) #8
  %8 = load ptr, ptr %4, align 8
  %9 = load ptr, ptr %5, align 8
  %10 = load i32, ptr %6, align 4
  %11 = load i32, ptr @hf_afp_file_bitmap, align 4
  %12 = load i32, ptr @ett_afp_file_bitmap, align 4
  %13 = call ptr @proto_tree_add_bitmask(ptr noundef %8, ptr noundef %9, i32 noundef %10, i32 noundef %11, i32 noundef %12, ptr noundef @decode_file_bitmap.bitmaps, i32 noundef 0)
  %14 = load ptr, ptr %5, align 8
  %15 = load i32, ptr %6, align 4
  %16 = call zeroext i16 @tvb_get_ntohs(ptr noundef %14, i32 noundef %15)
  store i16 %16, ptr %7, align 2
  %17 = load i16, ptr %7, align 2
  call void @llvm.lifetime.end.p0(i64 2, ptr %7) #8
  ret i16 %17
}

; Function Attrs: null_pointer_is_valid sspstrong uwtable
define internal i32 @dissect_reply_afp_get_fldr_param(ptr noundef %0, ptr noundef %1, ptr noundef %2, i32 noundef %3) #1 {
  %5 = alloca ptr, align 8
  %6 = alloca ptr, align 8
  %7 = alloca ptr, align 8
  %8 = alloca i32, align 4
  %9 = alloca i8, align 1
  %10 = alloca i16, align 2
  %11 = alloca i16, align 2
  store ptr %0, ptr %5, align 8
  store ptr %1, ptr %6, align 8
  store ptr %2, ptr %7, align 8
  store i32 %3, ptr %8, align 4
  call void @llvm.lifetime.start.p0(i64 1, ptr %9) #8
  call void @llvm.lifetime.start.p0(i64 2, ptr %10) #8
  call void @llvm.lifetime.start.p0(i64 2, ptr %11) #8
  %12 = load ptr, ptr %7, align 8
  %13 = load ptr, ptr %5, align 8
  %14 = load i32, ptr %8, align 4
  %15 = call zeroext i16 @decode_file_bitmap(ptr noundef %12, ptr noundef %13, i32 noundef %14)
  store i16 %15, ptr %10, align 2
  %16 = load i32, ptr %8, align 4
  %17 = add i32 %16, 2
  store i32 %17, ptr %8, align 4
  %18 = load ptr, ptr %7, align 8
  %19 = load ptr, ptr %5, align 8
  %20 = load i32, ptr %8, align 4
  %21 = call zeroext i16 @decode_dir_bitmap(ptr noundef %18, ptr noundef %19, i32 noundef %20)
  store i16 %21, ptr %11, align 2
  %22 = load i32, ptr %8, align 4
  %23 = add i32 %22, 2
  store i32 %23, ptr %8, align 4
  %24 = load ptr, ptr %5, align 8
  %25 = load i32, ptr %8, align 4
  %26 = call zeroext i8 @tvb_get_uint8(ptr noundef %24, i32 noundef %25)
  store i8 %26, ptr %9, align 1
  %27 = load ptr, ptr %7, align 8
  %28 = load i32, ptr @hf_afp_file_flag, align 4
  %29 = load ptr, ptr %5, align 8
  %30 = load i32, ptr %8, align 4
  %31 = call ptr @proto_tree_add_item(ptr noundef %27, i32 noundef %28, ptr noundef %29, i32 noundef %30, i32 noundef 1, i32 noundef 0)
  %32 = load i32, ptr %8, align 4
  %33 = add i32 %32, 1
  store i32 %33, ptr %8, align 4
  %34 = load ptr, ptr %7, align 8
  %35 = load i32, ptr @hf_afp_pad, align 4
  %36 = load ptr, ptr %5, align 8
  %37 = load i32, ptr %8, align 4
  %38 = call ptr @proto_tree_add_item(ptr noundef %34, i32 noundef %35, ptr noundef %36, i32 noundef %37, i32 noundef 1, i32 noundef 0)
  %39 = load i32, ptr %8, align 4
  %40 = add i32 %39, 1
  store i32 %40, ptr %8, align 4
  %41 = load i8, ptr %9, align 1
  %42 = icmp ne i8 %41, 0
  br i1 %42, label %43, label %49

43:                                               ; preds = %4
  %44 = load ptr, ptr %7, align 8
  %45 = load ptr, ptr %5, align 8
  %46 = load i32, ptr %8, align 4
  %47 = load i16, ptr %11, align 2
  %48 = call i32 @parse_dir_bitmap(ptr noundef %44, ptr noundef %45, i32 noundef %46, i16 noundef zeroext %47)
  store i32 %48, ptr %8, align 4
  br label %55

49:                                               ; preds = %4
  %50 = load ptr, ptr %7, align 8
  %51 = load ptr, ptr %5, align 8
  %52 = load i32, ptr %8, align 4
  %53 = load i16, ptr %10, align 2
  %54 = call i32 @parse_file_bitmap(ptr noundef %50, ptr noundef %51, i32 noundef %52, i16 noundef zeroext %53, i32 noundef 0)
  store i32 %54, ptr %8, align 4
  br label %55

55:                                               ; preds = %49, %43
  %56 = load i32, ptr %8, align 4
  call void @llvm.lifetime.end.p0(i64 2, ptr %11) #8
  call void @llvm.lifetime.end.p0(i64 2, ptr %10) #8
  call void @llvm.lifetime.end.p0(i64 1, ptr %9) #8
  ret i32 %56
}