; Function Attrs: null_pointer_is_valid sspstrong uwtable
define internal fastcc i32 @dissect_reply_afp_get_fldr_param(ptr noundef %0, ptr noundef %1) unnamed_addr #1 {
  %3 = load i32, ptr @hf_afp_file_bitmap, align 4
  %4 = load i32, ptr @ett_afp_file_bitmap, align 4
  %5 = tail call ptr @proto_tree_add_bitmask(ptr noundef %1, ptr noundef %0, i32 noundef 0, i32 noundef %3, i32 noundef %4, ptr noundef nonnull @decode_file_bitmap.bitmaps, i32 noundef 0)
  %6 = tail call zeroext i16 @tvb_get_ntohs(ptr noundef %0, i32 noundef 0)
  %7 = load i32, ptr @hf_afp_dir_bitmap, align 4
  %8 = load i32, ptr @ett_afp_dir_bitmap, align 4
  %9 = tail call ptr @proto_tree_add_bitmask(ptr noundef %1, ptr noundef %0, i32 noundef 2, i32 noundef %7, i32 noundef %8, ptr noundef nonnull @decode_dir_bitmap.bitmaps, i32 noundef 0)
  %10 = tail call zeroext i16 @tvb_get_ntohs(ptr noundef %0, i32 noundef 2)
  %11 = tail call zeroext i8 @tvb_get_uint8(ptr noundef %0, i32 noundef 4)
  %12 = load i32, ptr @hf_afp_file_flag, align 4
  %13 = tail call ptr @proto_tree_add_item(ptr noundef %1, i32 noundef %12, ptr noundef %0, i32 noundef 4, i32 noundef 1, i32 noundef 0)
  %14 = load i32, ptr @hf_afp_pad, align 4
  %15 = tail call ptr @proto_tree_add_item(ptr noundef %1, i32 noundef %14, ptr noundef %0, i32 noundef 5, i32 noundef 1, i32 noundef 0)
  %.not = icmp eq i8 %11, 0
  br i1 %.not, label %18, label %16

16:                                               ; preds = %2
  %17 = tail call fastcc i32 @parse_dir_bitmap(ptr noundef %1, ptr noundef %0, i32 noundef 6, i16 noundef zeroext %10)
  br label %20

18:                                               ; preds = %2
  %19 = tail call fastcc i32 @parse_file_bitmap(ptr noundef %1, ptr noundef %0, i32 noundef 6, i16 noundef zeroext %6, i32 noundef 0)
  br label %20

20:                                               ; preds = %18, %16
  %.0 = phi i32 [ %17, %16 ], [ %19, %18 ]
  ret i32 %.0
}